; Function Attrs: nofree nosync nounwind memory(readwrite, inaccessiblemem: none) uwtable
define internal fastcc range(i32 -2147483647, -2147483648) i32 @Abs_GiaObjDeref_rec(ptr noundef %0, ptr noundef %1) unnamed_addr #5 {
  %3 = load i64, ptr %1, align 4
  %4 = and i64 %3, 4611686018427387904
  %.not = icmp eq i64 %4, 0
  br i1 %.not, label %5, label %49

5:                                                ; preds = %2
  %6 = and i64 %3, 2684354559
  %narrow.i.not.i = icmp eq i64 %6, 2684354559
  br i1 %narrow.i.not.i, label %Gia_ObjIsRo.exit, label %Gia_ObjIsRo.exit.thread

Gia_ObjIsRo.exit:                                 ; preds = %5
  %7 = lshr i64 %3, 32
  %8 = trunc nuw i64 %7 to i32
  %9 = and i32 %8, 536870911
  %10 = getelementptr i8, ptr %0, i64 16
  %.val3.i = load i32, ptr %10, align 8, !tbaa !58
  %11 = getelementptr i8, ptr %0, i64 64
  %.val4.i = load ptr, ptr %11, align 8, !tbaa !44
  %12 = getelementptr i8, ptr %.val4.i, i64 4
  %.val4.val.i = load i32, ptr %12, align 4, !tbaa !33
  %13 = sub nsw i32 %.val4.val.i, %.val3.i
  %.not24 = icmp slt i32 %9, %13
  br i1 %.not24, label %Gia_ObjIsRo.exit.thread, label %49

Gia_ObjIsRo.exit.thread:                          ; preds = %5, %Gia_ObjIsRo.exit
  %14 = and i64 %3, 536870911
  %15 = sub nsw i64 0, %14
  %16 = getelementptr inbounds %struct.Gia_Obj_t_, ptr %1, i64 %15
  %17 = getelementptr i8, ptr %0, i64 32
  %.val19 = load ptr, ptr %17, align 8, !tbaa !3
  %18 = getelementptr i8, ptr %0, i64 144
  %.val20 = load ptr, ptr %18, align 8, !tbaa !34
  %19 = ptrtoint ptr %16 to i64
  %20 = ptrtoint ptr %.val19 to i64
  %21 = sub i64 %19, %20
  %22 = sdiv exact i64 %21, 12
  %sext.i = shl i64 %22, 32
  %23 = ashr exact i64 %sext.i, 30
  %24 = getelementptr inbounds i8, ptr %.val20, i64 %23
  %25 = load i32, ptr %24, align 4, !tbaa !30
  %26 = add nsw i32 %25, -1
  store i32 %26, ptr %24, align 4, !tbaa !30
  %27 = icmp eq i32 %26, 0
  br i1 %27, label %28, label %30

28:                                               ; preds = %Gia_ObjIsRo.exit.thread
  %29 = tail call fastcc i32 @Abs_GiaObjDeref_rec(ptr noundef nonnull %0, ptr noundef nonnull %16)
  %.val.pre = load ptr, ptr %17, align 8, !tbaa !3
  %.val18.pre = load ptr, ptr %18, align 8, !tbaa !34
  %.pre = ptrtoint ptr %.val.pre to i64
  br label %30

30:                                               ; preds = %28, %Gia_ObjIsRo.exit.thread
  %.pre-phi = phi i64 [ %.pre, %28 ], [ %20, %Gia_ObjIsRo.exit.thread ]
  %.val18 = phi ptr [ %.val18.pre, %28 ], [ %.val20, %Gia_ObjIsRo.exit.thread ]
  %.0 = phi i32 [ %29, %28 ], [ 0, %Gia_ObjIsRo.exit.thread ]
  %31 = load i64, ptr %1, align 4
  %32 = lshr i64 %31, 32
  %33 = and i64 %32, 536870911
  %34 = sub nsw i64 0, %33
  %35 = getelementptr inbounds %struct.Gia_Obj_t_, ptr %1, i64 %34
  %36 = ptrtoint ptr %35 to i64
  %37 = sub i64 %36, %.pre-phi
  %38 = sdiv exact i64 %37, 12
  %sext.i22 = shl i64 %38, 32
  %39 = ashr exact i64 %sext.i22, 30
  %40 = getelementptr inbounds i8, ptr %.val18, i64 %39
  %41 = load i32, ptr %40, align 4, !tbaa !30
  %42 = add nsw i32 %41, -1
  store i32 %42, ptr %40, align 4, !tbaa !30
  %43 = icmp eq i32 %42, 0
  br i1 %43, label %44, label %47

44:                                               ; preds = %30
  %45 = tail call fastcc i32 @Abs_GiaObjDeref_rec(ptr noundef nonnull %0, ptr noundef nonnull %35)
  %46 = add nsw i32 %45, %.0
  br label %47

47:                                               ; preds = %44, %30
  %.1 = phi i32 [ %46, %44 ], [ %.0, %30 ]
  %48 = add nsw i32 %.1, 1
  br label %49

49:                                               ; preds = %2, %Gia_ObjIsRo.exit, %47
  %.016 = phi i32 [ %48, %47 ], [ 0, %Gia_ObjIsRo.exit ], [ 0, %2 ]
  ret i32 %.016
}